target datalayout = "e-m:e-p270:32:32-p271:32:32-p272:64:64-i64:64-i128:128-f80:128-n8:16:32:64-S128"
target triple = "x86_64-pc-linux-gnu"

%struct._sapi_module_struct = type { ptr, ptr, ptr, ptr, ptr, ptr, ptr, ptr, ptr, ptr, ptr, ptr, ptr, ptr, ptr, ptr, ptr, ptr, ptr, ptr, ptr, ptr, ptr, ptr, i32, i32, ptr, ptr, ptr, ptr, ptr, ptr, i32, ptr, ptr, ptr }
%struct._zend_ini_entry = type { ptr, ptr, ptr, ptr, ptr, ptr, ptr, ptr, i32, i8, i8, i8, ptr }

@sapi_module = external global %struct._sapi_module_struct, align 8
@.str.80 = private unnamed_addr constant [4 x i8] c"cli\00", align 1
@.str.81 = private unnamed_addr constant [4 x i8] c"cgi\00", align 1
@.str.82 = private unnamed_addr constant [7 x i8] c"phpdbg\00", align 1
@.str.286 = private unnamed_addr constant [7 x i8] c"STDERR\00", align 1
@.str.287 = private unnamed_addr constant [3 x i8] c"On\00", align 1
@.str.288 = private unnamed_addr constant [7 x i8] c"STDOUT\00", align 1
@.str.289 = private unnamed_addr constant [4 x i8] c"Off\00", align 1

; Function Attrs: nounwind uwtable
define internal void @display_errors_mode(ptr noundef %0, i32 noundef %1) #1 {
  %3 = alloca ptr, align 8
  %4 = alloca i32, align 4
  %5 = alloca i8, align 1
  %6 = alloca i8, align 1
  %7 = alloca ptr, align 8
  %8 = alloca ptr, align 8
  %9 = alloca ptr, align 8
  %10 = alloca ptr, align 8
  %11 = alloca ptr, align 8
  %12 = alloca ptr, align 8
  store ptr %0, ptr %3, align 8, !tbaa !243
  store i32 %1, ptr %4, align 4, !tbaa !50
  call void @llvm.lifetime.start.p0(i64 1, ptr %5) #18
  call void @llvm.lifetime.start.p0(i64 1, ptr %6) #18
  call void @llvm.lifetime.start.p0(i64 8, ptr %7) #18
  %13 = load i32, ptr %4, align 4, !tbaa !50
  %14 = icmp eq i32 %13, 1
  br i1 %14, label %15, label %33

15:                                               ; preds = %2
  %16 = load ptr, ptr %3, align 8, !tbaa !243
  %17 = getelementptr inbounds nuw %struct._zend_ini_entry, ptr %16, i32 0, i32 11
  %18 = load i8, ptr %17, align 2, !tbaa !244
  %19 = zext i8 %18 to i32
  %20 = icmp ne i32 %19, 0
  br i1 %20, label %21, label %33

21:                                               ; preds = %15
  %22 = load ptr, ptr %3, align 8, !tbaa !243
  %23 = getelementptr inbounds nuw %struct._zend_ini_entry, ptr %22, i32 0, i32 6
  %24 = load ptr, ptr %23, align 8, !tbaa !247
  %25 = icmp ne ptr %24, null
  br i1 %25, label %26, label %30

26:                                               ; preds = %21
  %27 = load ptr, ptr %3, align 8, !tbaa !243
  %28 = getelementptr inbounds nuw %struct._zend_ini_entry, ptr %27, i32 0, i32 6
  %29 = load ptr, ptr %28, align 8, !tbaa !247
  br label %31

30:                                               ; preds = %21
  br label %31

31:                                               ; preds = %30, %26
  %32 = phi ptr [ %29, %26 ], [ null, %30 ]
  store ptr %32, ptr %7, align 8, !tbaa !54
  br label %44

33:                                               ; preds = %15, %2
  %34 = load ptr, ptr %3, align 8, !tbaa !243
  %35 = getelementptr inbounds nuw %struct._zend_ini_entry, ptr %34, i32 0, i32 5
  %36 = load ptr, ptr %35, align 8, !tbaa !248
  %37 = icmp ne ptr %36, null
  br i1 %37, label %38, label %42

38:                                               ; preds = %33
  %39 = load ptr, ptr %3, align 8, !tbaa !243
  %40 = getelementptr inbounds nuw %struct._zend_ini_entry, ptr %39, i32 0, i32 5
  %41 = load ptr, ptr %40, align 8, !tbaa !248
  store ptr %41, ptr %7, align 8, !tbaa !54
  br label %43

42:                                               ; preds = %33
  store ptr null, ptr %7, align 8, !tbaa !54
  br label %43

43:                                               ; preds = %42, %38
  br label %44

44:                                               ; preds = %43, %31
  %45 = load ptr, ptr %7, align 8, !tbaa !54
  %46 = call zeroext i8 @php_get_display_errors_mode(ptr noundef %45)
  store i8 %46, ptr %5, align 1, !tbaa !27
  %47 = load ptr, ptr @sapi_module, align 8, !tbaa !9
  %48 = call i32 @strcmp(ptr noundef %47, ptr noundef @.str.80) #19
  %49 = icmp ne i32 %48, 0
  br i1 %49, label %50, label %59

50:                                               ; preds = %44
  %51 = load ptr, ptr @sapi_module, align 8, !tbaa !9
  %52 = call i32 @strcmp(ptr noundef %51, ptr noundef @.str.81) #19
  %53 = icmp ne i32 %52, 0
  br i1 %53, label %54, label %59

54:                                               ; preds = %50
  %55 = load ptr, ptr @sapi_module, align 8, !tbaa !9
  %56 = call i32 @strcmp(ptr noundef %55, ptr noundef @.str.82) #19
  %57 = icmp ne i32 %56, 0
  %58 = xor i1 %57, true
  br label %59

59:                                               ; preds = %54, %50, %44
  %60 = phi i1 [ true, %50 ], [ true, %44 ], [ %58, %54 ]
  %61 = zext i1 %60 to i8
  store i8 %61, ptr %6, align 1, !tbaa !47
  %62 = load i8, ptr %5, align 1, !tbaa !27
  %63 = zext i8 %62 to i32
  switch i32 %63, label %104 [
    i32 2, label %64
    i32 1, label %84
  ]

64:                                               ; preds = %59
  %65 = load i8, ptr %6, align 1, !tbaa !47, !range !48, !noundef !49
  %66 = trunc i8 %65 to i1
  br i1 %66, label %67, label %75

67:                                               ; preds = %64
  br label %68

68:                                               ; preds = %67
  call void @llvm.lifetime.start.p0(i64 8, ptr %8) #18
  store ptr @.str.286, ptr %8, align 8, !tbaa !14
  %69 = load ptr, ptr %8, align 8, !tbaa !14
  %70 = load ptr, ptr %8, align 8, !tbaa !14
  %71 = call i64 @strlen(ptr noundef %70) #19
  %72 = call i64 @php_output_write(ptr noundef %69, i64 noundef %71)
  call void @llvm.lifetime.end.p0(i64 8, ptr %8) #18
  br label %73

73:                                               ; preds = %68
  br label %74

74:                                               ; preds = %73
  br label %83

75:                                               ; preds = %64
  br label %76

76:                                               ; preds = %75
  call void @llvm.lifetime.start.p0(i64 8, ptr %9) #18
  store ptr @.str.287, ptr %9, align 8, !tbaa !14
  %77 = load ptr, ptr %9, align 8, !tbaa !14
  %78 = load ptr, ptr %9, align 8, !tbaa !14
  %79 = call i64 @strlen(ptr noundef %78) #19
  %80 = call i64 @php_output_write(ptr noundef %77, i64 noundef %79)
  call void @llvm.lifetime.end.p0(i64 8, ptr %9) #18
  br label %81

81:                                               ; preds = %76
  br label %82

82:                                               ; preds = %81
  br label %83

83:                                               ; preds = %82, %74
  br label %112

84:                                               ; preds = %59
  %85 = load i8, ptr %6, align 1, !tbaa !47, !range !48, !noundef !49
  %86 = trunc i8 %85 to i1
  br i1 %86, label %87, label %95

87:                                               ; preds = %84
  br label %88

88:                                               ; preds = %87
  call void @llvm.lifetime.start.p0(i64 8, ptr %10) #18
  store ptr @.str.288, ptr %10, align 8, !tbaa !14
  %89 = load ptr, ptr %10, align 8, !tbaa !14
  %90 = load ptr, ptr %10, align 8, !tbaa !14
  %91 = call i64 @strlen(ptr noundef %90) #19
  %92 = call i64 @php_output_write(ptr noundef %89, i64 noundef %91)
  call void @llvm.lifetime.end.p0(i64 8, ptr %10) #18
  br label %93

93:                                               ; preds = %88
  br label %94

94:                                               ; preds = %93
  br label %103

95:                                               ; preds = %84
  br label %96

96:                                               ; preds = %95
  call void @llvm.lifetime.start.p0(i64 8, ptr %11) #18
  store ptr @.str.287, ptr %11, align 8, !tbaa !14
  %97 = load ptr, ptr %11, align 8, !tbaa !14
  %98 = load ptr, ptr %11, align 8, !tbaa !14
  %99 = call i64 @strlen(ptr noundef %98) #19
  %100 = call i64 @php_output_write(ptr noundef %97, i64 noundef %99)
  call void @llvm.lifetime.end.p0(i64 8, ptr %11) #18
  br label %101

101:                                              ; preds = %96
  br label %102

102:                                              ; preds = %101
  br label %103

103:                                              ; preds = %102, %94
  br label %112

104:                                              ; preds = %59
  br label %105

105:                                              ; preds = %104
  call void @llvm.lifetime.start.p0(i64 8, ptr %12) #18
  store ptr @.str.289, ptr %12, align 8, !tbaa !14
  %106 = load ptr, ptr %12, align 8, !tbaa !14
  %107 = load ptr, ptr %12, align 8, !tbaa !14
  %108 = call i64 @strlen(ptr noundef %107) #19
  %109 = call i64 @php_output_write(ptr noundef %106, i64 noundef %108)
  call void @llvm.lifetime.end.p0(i64 8, ptr %12) #18
  br label %110

110:                                              ; preds = %105
  br label %111

111:                                              ; preds = %110
  br label %112

112:                                              ; preds = %111, %103, %83
  call void @llvm.lifetime.end.p0(i64 8, ptr %7) #18
  call void @llvm.lifetime.end.p0(i64 1, ptr %6) #18
  call void @llvm.lifetime.end.p0(i64 1, ptr %5) #18
  ret void
}