; Function Attrs: nounwind uwtable
define internal void @display_errors_mode(ptr noundef readonly captures(none) %0, i32 noundef %1) #2 {
  %3 = icmp eq i32 %1, 1
  br i1 %3, label %4, label %7

4:                                                ; preds = %2
  %5 = getelementptr inbounds nuw i8, ptr %0, i64 70
  %6 = load i8, ptr %5, align 2, !tbaa !213
  %.not = icmp eq i8 %6, 0
  br i1 %.not, label %7, label %8

7:                                                ; preds = %4, %2
  br label %8

8:                                                ; preds = %4, %7
  %.sink = phi i64 [ 40, %7 ], [ 48, %4 ]
  %9 = getelementptr inbounds nuw i8, ptr %0, i64 %.sink
  %.0 = load ptr, ptr %9, align 8, !tbaa !98
  %10 = tail call fastcc zeroext i8 @php_get_display_errors_mode(ptr noundef %.0)
  %11 = load ptr, ptr @sapi_module, align 8, !tbaa !4
  %12 = tail call i32 @strcmp(ptr noundef nonnull dereferenceable(1) %11, ptr noundef nonnull dereferenceable(4) @.str.80) #29
  %.not23 = icmp eq i32 %12, 0
  br i1 %.not23, label %17, label %13

13:                                               ; preds = %8
  %14 = tail call i32 @strcmp(ptr noundef nonnull dereferenceable(1) %11, ptr noundef nonnull dereferenceable(4) @.str.81) #29
  %.not24 = icmp eq i32 %14, 0
  br i1 %.not24, label %17, label %15

15:                                               ; preds = %13
  %16 = tail call i32 @strcmp(ptr noundef nonnull dereferenceable(1) %11, ptr noundef nonnull dereferenceable(7) @.str.82) #29
  %.not25 = icmp eq i32 %16, 0
  br label %17

17:                                               ; preds = %15, %13, %8
  %18 = phi i1 [ true, %13 ], [ true, %8 ], [ %.not25, %15 ]
  switch i8 %10, label %29 [
    i8 2, label %19
    i8 1, label %24
  ]

19:                                               ; preds = %17
  br i1 %18, label %20, label %22

20:                                               ; preds = %19
  %21 = tail call i64 @php_output_write(ptr noundef nonnull @.str.286, i64 noundef 6) #28
  br label %31

22:                                               ; preds = %19
  %23 = tail call i64 @php_output_write(ptr noundef nonnull @.str.287, i64 noundef 2) #28
  br label %31

24:                                               ; preds = %17
  br i1 %18, label %25, label %27

25:                                               ; preds = %24
  %26 = tail call i64 @php_output_write(ptr noundef nonnull @.str.288, i64 noundef 6) #28
  br label %31

27:                                               ; preds = %24
  %28 = tail call i64 @php_output_write(ptr noundef nonnull @.str.287, i64 noundef 2) #28
  br label %31

29:                                               ; preds = %17
  %30 = tail call i64 @php_output_write(ptr noundef nonnull @.str.289, i64 noundef 3) #28
  br label %31

31:                                               ; preds = %25, %27, %20, %22, %29
  ret void
}